; Function Attrs: nounwind uwtable
define ptr @l_Lean_Compiler_LCNF_InferType_getType(ptr noundef %0, ptr noundef %1, ptr noundef %2, ptr noundef %3, ptr noundef %4, ptr noundef %5, ptr noundef %6) local_unnamed_addr #0 {
  %8 = ptrtoint ptr %0 to i64
  %9 = and i64 %8, 1
  %.not = icmp eq i64 %9, 0
  br i1 %.not, label %10, label %lean_inc.exit23

10:                                               ; preds = %7
  %.val.i = load i32, ptr %0, align 4, !tbaa !4
  %11 = icmp sgt i32 %.val.i, 0
  br i1 %11, label %12, label %14, !prof !9

12:                                               ; preds = %10
  %13 = add nuw i32 %.val.i, 1
  store i32 %13, ptr %0, align 4, !tbaa !4
  br label %lean_inc.exit23

14:                                               ; preds = %10
  %.not.i30 = icmp eq i32 %.val.i, 0
  br i1 %.not.i30, label %lean_inc.exit23, label %15

15:                                               ; preds = %14
  tail call void @lean_inc_ref_cold(ptr noundef nonnull %0) #5
  br label %lean_inc.exit23

lean_inc.exit23:                                  ; preds = %15, %14, %12, %7
  %16 = tail call ptr @lean_local_ctx_find(ptr noundef %1, ptr noundef %0) #5
  %17 = ptrtoint ptr %16 to i64
  %18 = and i64 %17, 1
  %.not.i31 = icmp eq i64 %18, 0
  br i1 %.not.i31, label %22, label %19

19:                                               ; preds = %lean_inc.exit23
  %20 = lshr i64 %17, 1
  %21 = trunc i64 %20 to i32
  br label %lean_obj_tag.exit

22:                                               ; preds = %lean_inc.exit23
  %23 = getelementptr i8, ptr %16, i64 4
  %.val.i32 = load i32, ptr %23, align 4
  %24 = lshr i32 %.val.i32, 24
  br label %lean_obj_tag.exit

lean_obj_tag.exit:                                ; preds = %19, %22
  %.0.i = phi i32 [ %21, %19 ], [ %24, %22 ]
  %25 = icmp eq i32 %.0.i, 0
  br i1 %25, label %26, label %28

26:                                               ; preds = %lean_obj_tag.exit
  %27 = tail call ptr @l_Lean_Compiler_LCNF_getType(ptr noundef %0, ptr noundef %2, ptr noundef %3, ptr noundef %4, ptr noundef %5, ptr noundef %6) #5
  br label %67

28:                                               ; preds = %lean_obj_tag.exit
  br i1 %.not, label %29, label %lean_dec.exit25

29:                                               ; preds = %28
  %30 = load i32, ptr %0, align 4, !tbaa !4
  %31 = icmp sgt i32 %30, 1
  br i1 %31, label %32, label %34, !prof !9

32:                                               ; preds = %29
  %33 = add nsw i32 %30, -1
  store i32 %33, ptr %0, align 4, !tbaa !4
  br label %lean_dec.exit25

34:                                               ; preds = %29
  %.not.i = icmp eq i32 %30, 0
  br i1 %.not.i, label %lean_dec.exit25, label %35

35:                                               ; preds = %34
  tail call void @lean_dec_ref_cold(ptr noundef nonnull %0) #5
  br label %lean_dec.exit25

lean_dec.exit25:                                  ; preds = %35, %34, %32, %28
  %36 = getelementptr inbounds nuw i8, ptr %16, i64 8
  %37 = load ptr, ptr %36, align 8, !tbaa !10
  %38 = ptrtoint ptr %37 to i64
  %39 = and i64 %38, 1
  %.not36 = icmp eq i64 %39, 0
  br i1 %.not36, label %40, label %lean_inc.exit

40:                                               ; preds = %lean_dec.exit25
  %.val.i33 = load i32, ptr %37, align 4, !tbaa !4
  %41 = icmp sgt i32 %.val.i33, 0
  br i1 %41, label %42, label %44, !prof !9

42:                                               ; preds = %40
  %43 = add nuw i32 %.val.i33, 1
  store i32 %43, ptr %37, align 4, !tbaa !4
  br label %lean_inc.exit

44:                                               ; preds = %40
  %.not.i34 = icmp eq i32 %.val.i33, 0
  br i1 %.not.i34, label %lean_inc.exit, label %45

45:                                               ; preds = %44
  tail call void @lean_inc_ref_cold(ptr noundef nonnull %37) #5
  br label %lean_inc.exit

lean_inc.exit:                                    ; preds = %45, %44, %42, %lean_dec.exit25
  br i1 %.not.i31, label %46, label %lean_dec.exit24

46:                                               ; preds = %lean_inc.exit
  %47 = load i32, ptr %16, align 4, !tbaa !4
  %48 = icmp sgt i32 %47, 1
  br i1 %48, label %49, label %51, !prof !9

49:                                               ; preds = %46
  %50 = add nsw i32 %47, -1
  store i32 %50, ptr %16, align 4, !tbaa !4
  br label %lean_dec.exit24

51:                                               ; preds = %46
  %.not.i26 = icmp eq i32 %47, 0
  br i1 %.not.i26, label %lean_dec.exit24, label %52

52:                                               ; preds = %51
  tail call void @lean_dec_ref_cold(ptr noundef nonnull %16) #5
  br label %lean_dec.exit24

lean_dec.exit24:                                  ; preds = %52, %51, %49, %lean_inc.exit
  %53 = tail call ptr @l_Lean_LocalDecl_type(ptr noundef %37) #5
  br i1 %.not36, label %54, label %lean_dec.exit

54:                                               ; preds = %lean_dec.exit24
  %55 = load i32, ptr %37, align 4, !tbaa !4
  %56 = icmp sgt i32 %55, 1
  br i1 %56, label %57, label %59, !prof !9

57:                                               ; preds = %54
  %58 = add nsw i32 %55, -1
  store i32 %58, ptr %37, align 4, !tbaa !4
  br label %lean_dec.exit

59:                                               ; preds = %54
  %.not.i28 = icmp eq i32 %55, 0
  br i1 %.not.i28, label %lean_dec.exit, label %60

60:                                               ; preds = %59
  tail call void @lean_dec_ref_cold(ptr noundef nonnull %37) #5
  br label %lean_dec.exit

lean_dec.exit:                                    ; preds = %60, %59, %57, %lean_dec.exit24
  tail call void @lean_inc_heartbeat() #5
  %61 = tail call noalias ptr @mi_malloc_small(i64 noundef 24) #5
  %62 = icmp eq ptr %61, null
  br i1 %62, label %63, label %lean_alloc_ctor.exit

63:                                               ; preds = %lean_dec.exit
  tail call void @lean_internal_panic_out_of_memory() #6
  unreachable

lean_alloc_ctor.exit:                             ; preds = %lean_dec.exit
  %64 = getelementptr inbounds nuw i8, ptr %61, i64 4
  store i32 1, ptr %61, align 4, !tbaa !4
  store i32 131096, ptr %64, align 4
  %65 = getelementptr inbounds nuw i8, ptr %61, i64 8
  store ptr %53, ptr %65, align 8, !tbaa !10
  %66 = getelementptr inbounds nuw i8, ptr %61, i64 16
  store ptr %6, ptr %66, align 8, !tbaa !10
  br label %67

67:                                               ; preds = %lean_alloc_ctor.exit, %26
  %.0 = phi ptr [ %27, %26 ], [ %61, %lean_alloc_ctor.exit ]
  ret ptr %.0
}